target datalayout = "e-m:e-p270:32:32-p271:32:32-p272:64:64-i64:64-i128:128-f80:128-n8:16:32:64-S128"
target triple = "x86_64-pc-linux-gnu"

%struct.expert_field = type { i32, i32 }

@hf_nan_mac_address = internal global i32 0, align 4
@hf_nan_non_op_channel_global_op_class = internal global i32 0, align 4
@hf_nan_non_op_channel_channel = internal global i32 0, align 4
@hf_nan_non_op_channel_center_freq = internal global i32 0, align 4
@hf_nan_non_beacon_tbtt_offset = internal global i32 0, align 4
@hf_nan_non_beacon_interval = internal global i32 0, align 4
@hf_nan_attr_p2p_device_role = internal global i32 0, align 4
@ett_non_nan_op_channel = internal global i32 0, align 4
@ett_non_nan_beacon = internal global i32 0, align 4
@ett_p2p_device_role = internal global i32 0, align 4
@ei_nan_elem_len_invalid = internal global %struct.expert_field zeroinitializer, align 4
@.str.727 = private unnamed_addr constant [38 x i8] c"Non-NAN Operating Channel Information\00", align 1
@.str.728 = private unnamed_addr constant [27 x i8] c"Non-NAN Beacon Information\00", align 1
@dissect_attr_extended_p2p_operation.ext_p2p_bitmap_fields = internal constant [4 x ptr] [ptr @hf_nan_attr_p2p_device_role_device, ptr @hf_nan_attr_p2p_device_role_group_owner, ptr @hf_nan_attr_p2p_device_role_client, ptr null], align 16

; Function Attrs: null_pointer_is_valid sspstrong uwtable
define internal void @dissect_attr_extended_p2p_operation(ptr noundef %0, ptr noundef %1, i32 noundef %2, i16 noundef zeroext %3, ptr noundef %4) #0 {
  %6 = alloca ptr, align 8
  %7 = alloca ptr, align 8
  %8 = alloca i32, align 4
  %9 = alloca i16, align 2
  %10 = alloca ptr, align 8
  %11 = alloca i32, align 4
  %12 = alloca ptr, align 8
  %13 = alloca ptr, align 8
  %14 = alloca ptr, align 8
  %15 = alloca ptr, align 8
  store ptr %0, ptr %6, align 8
  store ptr %1, ptr %7, align 8
  store i32 %2, ptr %8, align 4
  store i16 %3, ptr %9, align 2
  store ptr %4, ptr %10, align 8
  %16 = load i16, ptr %9, align 2
  %17 = zext i16 %16 to i32
  %18 = icmp ne i32 %17, 14
  br i1 %18, label %19, label %23

19:                                               ; preds = %5
  %20 = load ptr, ptr %10, align 8
  %21 = load ptr, ptr %6, align 8
  %22 = call ptr @expert_add_info(ptr noundef %20, ptr noundef %21, ptr noundef @ei_nan_elem_len_invalid)
  br label %86

23:                                               ; preds = %5
  call void @llvm.lifetime.start.p0(i64 4, ptr %11) #5
  %24 = load i32, ptr %8, align 4
  %25 = add i32 %24, 3
  store i32 %25, ptr %11, align 4
  %26 = load ptr, ptr %6, align 8
  %27 = load ptr, ptr %7, align 8
  %28 = load i32, ptr %11, align 4
  %29 = load i32, ptr @hf_nan_attr_p2p_device_role, align 4
  %30 = load i32, ptr @ett_p2p_device_role, align 4
  %31 = call ptr @proto_tree_add_bitmask(ptr noundef %26, ptr noundef %27, i32 noundef %28, i32 noundef %29, i32 noundef %30, ptr noundef @dissect_attr_extended_p2p_operation.ext_p2p_bitmap_fields, i32 noundef -2147483648)
  %32 = load i32, ptr %11, align 4
  %33 = add i32 %32, 1
  store i32 %33, ptr %11, align 4
  %34 = load ptr, ptr %6, align 8
  %35 = load i32, ptr @hf_nan_mac_address, align 4
  %36 = load ptr, ptr %7, align 8
  %37 = load i32, ptr %11, align 4
  %38 = call ptr @proto_tree_add_item(ptr noundef %34, i32 noundef %35, ptr noundef %36, i32 noundef %37, i32 noundef 6, i32 noundef 0)
  %39 = load i32, ptr %11, align 4
  %40 = add i32 %39, 6
  store i32 %40, ptr %11, align 4
  call void @llvm.lifetime.start.p0(i64 8, ptr %12) #5
  store ptr @.str.727, ptr %12, align 8
  call void @llvm.lifetime.start.p0(i64 8, ptr %13) #5
  %41 = load ptr, ptr %6, align 8
  %42 = load ptr, ptr %7, align 8
  %43 = load i32, ptr %11, align 4
  %44 = load i32, ptr @ett_non_nan_op_channel, align 4
  %45 = load ptr, ptr %12, align 8
  %46 = call ptr @proto_tree_add_subtree(ptr noundef %41, ptr noundef %42, i32 noundef %43, i32 noundef 3, i32 noundef %44, ptr noundef null, ptr noundef %45)
  store ptr %46, ptr %13, align 8
  %47 = load ptr, ptr %13, align 8
  %48 = load i32, ptr @hf_nan_non_op_channel_global_op_class, align 4
  %49 = load ptr, ptr %7, align 8
  %50 = load i32, ptr %11, align 4
  %51 = call ptr @proto_tree_add_item(ptr noundef %47, i32 noundef %48, ptr noundef %49, i32 noundef %50, i32 noundef 1, i32 noundef 0)
  %52 = load i32, ptr %11, align 4
  %53 = add i32 %52, 1
  store i32 %53, ptr %11, align 4
  %54 = load ptr, ptr %13, align 8
  %55 = load i32, ptr @hf_nan_non_op_channel_channel, align 4
  %56 = load ptr, ptr %7, align 8
  %57 = load i32, ptr %11, align 4
  %58 = call ptr @proto_tree_add_item(ptr noundef %54, i32 noundef %55, ptr noundef %56, i32 noundef %57, i32 noundef 1, i32 noundef 0)
  %59 = load i32, ptr %11, align 4
  %60 = add i32 %59, 1
  store i32 %60, ptr %11, align 4
  %61 = load ptr, ptr %13, align 8
  %62 = load i32, ptr @hf_nan_non_op_channel_center_freq, align 4
  %63 = load ptr, ptr %7, align 8
  %64 = load i32, ptr %11, align 4
  %65 = call ptr @proto_tree_add_item(ptr noundef %61, i32 noundef %62, ptr noundef %63, i32 noundef %64, i32 noundef 1, i32 noundef 0)
  %66 = load i32, ptr %11, align 4
  %67 = add i32 %66, 1
  store i32 %67, ptr %11, align 4
  call void @llvm.lifetime.start.p0(i64 8, ptr %14) #5
  store ptr @.str.728, ptr %14, align 8
  call void @llvm.lifetime.start.p0(i64 8, ptr %15) #5
  %68 = load ptr, ptr %6, align 8
  %69 = load ptr, ptr %7, align 8
  %70 = load i32, ptr %11, align 4
  %71 = load i32, ptr @ett_non_nan_beacon, align 4
  %72 = load ptr, ptr %14, align 8
  %73 = call ptr @proto_tree_add_subtree(ptr noundef %68, ptr noundef %69, i32 noundef %70, i32 noundef 4, i32 noundef %71, ptr noundef null, ptr noundef %72)
  store ptr %73, ptr %15, align 8
  %74 = load ptr, ptr %15, align 8
  %75 = load i32, ptr @hf_nan_non_beacon_tbtt_offset, align 4
  %76 = load ptr, ptr %7, align 8
  %77 = load i32, ptr %11, align 4
  %78 = call ptr @proto_tree_add_item(ptr noundef %74, i32 noundef %75, ptr noundef %76, i32 noundef %77, i32 noundef 2, i32 noundef -2147483648)
  %79 = load i32, ptr %11, align 4
  %80 = add i32 %79, 2
  store i32 %80, ptr %11, align 4
  %81 = load ptr, ptr %15, align 8
  %82 = load i32, ptr @hf_nan_non_beacon_interval, align 4
  %83 = load ptr, ptr %7, align 8
  %84 = load i32, ptr %11, align 4
  %85 = call ptr @proto_tree_add_item(ptr noundef %81, i32 noundef %82, ptr noundef %83, i32 noundef %84, i32 noundef 2, i32 noundef -2147483648)
  call void @llvm.lifetime.end.p0(i64 8, ptr %15) #5
  call void @llvm.lifetime.end.p0(i64 8, ptr %14) #5
  call void @llvm.lifetime.end.p0(i64 8, ptr %13) #5
  call void @llvm.lifetime.end.p0(i64 8, ptr %12) #5
  call void @llvm.lifetime.end.p0(i64 4, ptr %11) #5
  br label %86

86:                                               ; preds = %23, %19
  ret void
}